; Function Attrs: mustprogress uwtable
define { ptr, i32 } @_ZN32pxrInternal_v0_24__pxrReserved__6TfEnum16GetValueFromNameERKSt9type_infoRKNSt7__cxx1112basic_stringIcSt11char_traitsIcESaIcEEEPb(ptr nocapture noundef nonnull readonly align 8 dereferenceable(16) %0, ptr noundef nonnull align 8 dereferenceable(32) %1, ptr noundef writeonly %2) local_unnamed_addr #3 align 2 personality ptr @__gxx_personality_v0 {
  %4 = alloca i8, align 1
  %5 = alloca %"class.std::__cxx11::basic_string", align 8
  %6 = alloca %"class.std::__cxx11::basic_string", align 8
  %7 = alloca %"class.std::__cxx11::basic_string", align 8
  store i8 0, ptr %4, align 1
  %8 = getelementptr inbounds nuw i8, ptr %0, i64 8
  %9 = load ptr, ptr %8, align 8, !noalias !17
  %10 = load i8, ptr %9, align 1, !noalias !17
  %11 = icmp eq i8 %10, 42
  %.idx.i.i = zext i1 %11 to i64
  %12 = getelementptr inbounds i8, ptr %9, i64 %.idx.i.i
  call void @_ZN32pxrInternal_v0_24__pxrReserved__16ArchGetDemangledB5cxx11EPKc(ptr dead_on_unwind nonnull writable sret(%"class.std::__cxx11::basic_string") align 8 %7, ptr noundef nonnull %12)
  %13 = invoke noundef nonnull align 8 dereferenceable(32) ptr @_ZNSt7__cxx1112basic_stringIcSt11char_traitsIcESaIcEE6appendEPKc(ptr noundef nonnull align 8 dereferenceable(32) %7, ptr noundef nonnull @.str.11)
          to label %14 unwind label %37

14:                                               ; preds = %3
  call void @_ZNSt7__cxx1112basic_stringIcSt11char_traitsIcESaIcEEC1EOS4_(ptr noundef nonnull align 8 dereferenceable(32) %6, ptr noundef nonnull align 8 dereferenceable(32) %13) #15
  %15 = invoke noundef nonnull align 8 dereferenceable(32) ptr @_ZNSt7__cxx1112basic_stringIcSt11char_traitsIcESaIcEE6appendERKS4_(ptr noundef nonnull align 8 dereferenceable(32) %6, ptr noundef nonnull align 8 dereferenceable(32) %1)
          to label %16 unwind label %39

16:                                               ; preds = %14
  call void @_ZNSt7__cxx1112basic_stringIcSt11char_traitsIcESaIcEEC1EOS4_(ptr noundef nonnull align 8 dereferenceable(32) %5, ptr noundef nonnull align 8 dereferenceable(32) %15) #15
  %17 = invoke { ptr, i32 } @_ZN32pxrInternal_v0_24__pxrReserved__6TfEnum20GetValueFromFullNameERKNSt7__cxx1112basic_stringIcSt11char_traitsIcESaIcEEEPb(ptr noundef nonnull align 8 dereferenceable(32) %5, ptr noundef nonnull %4)
          to label %18 unwind label %41

18:                                               ; preds = %16
  %.fca.0.extract = extractvalue { ptr, i32 } %17, 0
  call void @_ZNSt7__cxx1112basic_stringIcSt11char_traitsIcESaIcEED1Ev(ptr noundef nonnull align 8 dereferenceable(32) %5) #15
  call void @_ZNSt7__cxx1112basic_stringIcSt11char_traitsIcESaIcEED1Ev(ptr noundef nonnull align 8 dereferenceable(32) %6) #15
  call void @_ZNSt7__cxx1112basic_stringIcSt11char_traitsIcESaIcEED1Ev(ptr noundef nonnull align 8 dereferenceable(32) %7) #15
  %19 = load i8, ptr %4, align 1
  %20 = trunc i8 %19 to i1
  br i1 %20, label %21, label %_ZN32pxrInternal_v0_24__pxrReserved__17TfSafeTypeCompareERKSt9type_infoS2_.exit

21:                                               ; preds = %18
  %22 = getelementptr inbounds nuw i8, ptr %.fca.0.extract, i64 8
  %23 = load ptr, ptr %22, align 8
  %24 = load ptr, ptr %8, align 8
  %25 = icmp eq ptr %23, %24
  br i1 %25, label %_ZN32pxrInternal_v0_24__pxrReserved__17TfSafeTypeCompareERKSt9type_infoS2_.exit, label %26

26:                                               ; preds = %21
  %27 = load i8, ptr %23, align 1
  %.not.i.i = icmp eq i8 %27, 42
  br i1 %.not.i.i, label %_ZN32pxrInternal_v0_24__pxrReserved__17TfSafeTypeCompareERKSt9type_infoS2_.exit, label %28

28:                                               ; preds = %26
  %29 = load i8, ptr %24, align 1
  %30 = icmp eq i8 %29, 42
  %.idx.i.i.i = zext i1 %30 to i64
  %31 = getelementptr inbounds i8, ptr %24, i64 %.idx.i.i.i
  %32 = call i32 @strcmp(ptr noundef nonnull dereferenceable(1) %23, ptr noundef nonnull dereferenceable(1) %31) #15
  %33 = icmp eq i32 %32, 0
  %34 = zext i1 %33 to i8
  br label %_ZN32pxrInternal_v0_24__pxrReserved__17TfSafeTypeCompareERKSt9type_infoS2_.exit

_ZN32pxrInternal_v0_24__pxrReserved__17TfSafeTypeCompareERKSt9type_infoS2_.exit: ; preds = %28, %26, %21, %18
  %35 = phi i8 [ 0, %18 ], [ 1, %21 ], [ 0, %26 ], [ %34, %28 ]
  %.not = icmp eq ptr %2, null
  br i1 %.not, label %45, label %36

36:                                               ; preds = %_ZN32pxrInternal_v0_24__pxrReserved__17TfSafeTypeCompareERKSt9type_infoS2_.exit
  store i8 %35, ptr %2, align 1
  br label %45

37:                                               ; preds = %3
  %38 = landingpad { ptr, i32 }
          cleanup
  br label %44

39:                                               ; preds = %14
  %40 = landingpad { ptr, i32 }
          cleanup
  br label %43

41:                                               ; preds = %16
  %42 = landingpad { ptr, i32 }
          cleanup
  call void @_ZNSt7__cxx1112basic_stringIcSt11char_traitsIcESaIcEED1Ev(ptr noundef nonnull align 8 dereferenceable(32) %5) #15
  br label %43

43:                                               ; preds = %41, %39
  %.pn = phi { ptr, i32 } [ %42, %41 ], [ %40, %39 ]
  call void @_ZNSt7__cxx1112basic_stringIcSt11char_traitsIcESaIcEED1Ev(ptr noundef nonnull align 8 dereferenceable(32) %6) #15
  br label %44

44:                                               ; preds = %43, %37
  %.pn.pn = phi { ptr, i32 } [ %.pn, %43 ], [ %38, %37 ]
  call void @_ZNSt7__cxx1112basic_stringIcSt11char_traitsIcESaIcEED1Ev(ptr noundef nonnull align 8 dereferenceable(32) %7) #15
  resume { ptr, i32 } %.pn.pn

45:                                               ; preds = %36, %_ZN32pxrInternal_v0_24__pxrReserved__17TfSafeTypeCompareERKSt9type_infoS2_.exit
  %.fca.1.extract = extractvalue { ptr, i32 } %17, 1
  %46 = trunc nuw i8 %35 to i1
  %spec.select = select i1 %46, i32 %.fca.1.extract, i32 -1
  %spec.select12 = select i1 %46, ptr %.fca.0.extract, ptr @_ZTIi
  %.fca.0.insert = insertvalue { ptr, i32 } poison, ptr %spec.select12, 0
  %.fca.1.insert = insertvalue { ptr, i32 } %.fca.0.insert, i32 %spec.select, 1
  ret { ptr, i32 } %.fca.1.insert
}